---
triple:          'arm64-apple-darwin'
binary-path:     '/Users/daichi/Engineer/solo/algorithm/liner-search/test'
relocations:
  - { offsetInCU: 0x3F, offset: 0x3F, size: 0x8, addend: 0x0, symName: __ZL2PI, symObjAddr: 0x35448, symBinAddr: 0x10000C000, symSize: 0x0 }
  - { offsetInCU: 0x6F65, offset: 0x6F65, size: 0x8, addend: 0x0, symName: __ZNSt3__1plB8ue170006IdEENS_7complexIT_EERKS3_S5_, symObjAddr: 0x4E0, symBinAddr: 0x100002D18, symSize: 0x40 }
  - { offsetInCU: 0x6FBA, offset: 0x6FBA, size: 0x8, addend: 0x0, symName: __ZNSt3__1mlB8ue170006IdEENS_7complexIT_EERKS3_S5_, symObjAddr: 0x520, symBinAddr: 0x100002D58, symSize: 0x3C8 }
  - { offsetInCU: 0x70B5, offset: 0x70B5, size: 0x8, addend: 0x0, symName: __ZNSt3__1miB8ue170006IdEENS_7complexIT_EERKS3_S5_, symObjAddr: 0x8E8, symBinAddr: 0x100003120, symSize: 0x40 }
  - { offsetInCU: 0x7D45, offset: 0x7D45, size: 0x8, addend: 0x0, symName: __ZNSt3__14endlB8ue170006IcNS_11char_traitsIcEEEERNS_13basic_ostreamIT_T0_EES7_, symObjAddr: 0x10F0, symBinAddr: 0x100003928, symSize: 0x58 }
  - { offsetInCU: 0x7D85, offset: 0x7D85, size: 0x8, addend: 0x0, symName: __ZNSt3__122__make_exception_guardB8ue170006INS_6vectorINS_7complexIdEENS_9allocatorIS3_EEE16__destroy_vectorEEENS_28__exception_guard_exceptionsIT_EES9_, symObjAddr: 0x1284, symBinAddr: 0x100003ABC, symSize: 0x40 }
  - { offsetInCU: 0x7DBA, offset: 0x7DBA, size: 0x8, addend: 0x0, symName: __ZNSt3__119__allocate_at_leastB8ue170006INS_9allocatorINS_7complexIdEEEEEENS_19__allocation_resultINS_16allocator_traitsIT_E7pointerEEERS7_m, symObjAddr: 0x1670, symBinAddr: 0x100003EA8, symSize: 0x40 }
  - { offsetInCU: 0x7DFD, offset: 0x7DFD, size: 0x8, addend: 0x0, symName: __ZNSt3__13minB8ue170006ImEERKT_S3_S3_, symObjAddr: 0x17AC, symBinAddr: 0x100003FE4, symSize: 0x2C }
  - { offsetInCU: 0x8041, offset: 0x8041, size: 0x8, addend: 0x0, symName: __ZNSt3__13minB8ue170006ImNS_6__lessIvvEEEERKT_S5_S5_T0_, symObjAddr: 0x1844, symBinAddr: 0x10000407C, symSize: 0x54 }
  - { offsetInCU: 0x80E0, offset: 0x80E0, size: 0x8, addend: 0x0, symName: __ZNSt3__120__throw_length_errorB8ue170006EPKc, symObjAddr: 0x1920, symBinAddr: 0x100004158, symSize: 0x64 }
  - { offsetInCU: 0x810A, offset: 0x810A, size: 0x8, addend: 0x0, symName: __ZNSt3__117__libcpp_allocateB8ue170006Emm, symObjAddr: 0x1A90, symBinAddr: 0x1000042C8, symSize: 0x28 }
  - { offsetInCU: 0x8147, offset: 0x8147, size: 0x8, addend: 0x0, symName: __ZNSt3__121__libcpp_operator_newB8ue170006IJmEEEPvDpT_, symObjAddr: 0x1AB8, symBinAddr: 0x1000042F0, symSize: 0x24 }
  - { offsetInCU: 0x8180, offset: 0x8180, size: 0x8, addend: 0x0, symName: __ZNSt3__112__to_addressB8ue170006INS_7complexIdEEEEPT_S4_, symObjAddr: 0x1BD4, symBinAddr: 0x10000440C, symSize: 0x14 }
  - { offsetInCU: 0x81B5, offset: 0x81B5, size: 0x8, addend: 0x0, symName: __ZNSt3__119__libcpp_deallocateB8ue170006EPvmm, symObjAddr: 0x2070, symBinAddr: 0x1000048A8, symSize: 0x30 }
  - { offsetInCU: 0x81FD, offset: 0x81FD, size: 0x8, addend: 0x0, symName: __ZNSt3__127__do_deallocate_handle_sizeB8ue170006IJEEEvPvmDpT_, symObjAddr: 0x20A0, symBinAddr: 0x1000048D8, symSize: 0x28 }
  - { offsetInCU: 0x823B, offset: 0x823B, size: 0x8, addend: 0x0, symName: __ZNSt3__124__libcpp_operator_deleteB8ue170006IJPvEEEvDpT_, symObjAddr: 0x20C8, symBinAddr: 0x100004900, symSize: 0x24 }
  - { offsetInCU: 0x8270, offset: 0x8270, size: 0x8, addend: 0x0, symName: __ZNSt3__117__constexpr_isnanB8ue170006IdEENS_9enable_ifIXsr17is_floating_pointIT_EE5valueEbE4typeES2_, symObjAddr: 0x2144, symBinAddr: 0x10000497C, symSize: 0x20 }
  - { offsetInCU: 0x82A7, offset: 0x82A7, size: 0x8, addend: 0x0, symName: __ZNSt3__117__constexpr_isinfB8ue170006IdEENS_9enable_ifIXsr17is_floating_pointIT_EE5valueEbE4typeES2_, symObjAddr: 0x2164, symBinAddr: 0x10000499C, symSize: 0x2C }
  - { offsetInCU: 0x82DE, offset: 0x82DE, size: 0x8, addend: 0x0, symName: __ZNSt3__120__constexpr_copysignB8ue170006Edd, symObjAddr: 0x2190, symBinAddr: 0x1000049C8, symSize: 0x44 }
  - { offsetInCU: 0x831B, offset: 0x831B, size: 0x8, addend: 0x0, symName: __ZNSt3__18distanceB8ue170006INS_11__wrap_iterIPKiEEEENS_15iterator_traitsIT_E15difference_typeES6_S6_, symObjAddr: 0x23AC, symBinAddr: 0x100004BE4, symSize: 0x3C }
  - { offsetInCU: 0x835E, offset: 0x835E, size: 0x8, addend: 0x0, symName: __ZNSt3__110__distanceB8ue170006INS_11__wrap_iterIPKiEEEENS_15iterator_traitsIT_E15difference_typeES6_S6_NS_26random_access_iterator_tagE, symObjAddr: 0x24B0, symBinAddr: 0x100004CE8, symSize: 0x30 }
  - { offsetInCU: 0x83AB, offset: 0x83AB, size: 0x8, addend: 0x0, symName: __ZNSt3__1miB8ue170006IPKiS2_EEDTmicldtfp_4baseEcldtfp0_4baseEERKNS_11__wrap_iterIT_EERKNS4_IT0_EE, symObjAddr: 0x24E0, symBinAddr: 0x100004D18, symSize: 0x48 }
  - { offsetInCU: 0x83F7, offset: 0x83F7, size: 0x8, addend: 0x0, symName: __ZNSt3__130__uninitialized_allocator_copyB8ue170006INS_9allocatorINS_7complexIdEEEENS_11__wrap_iterIPKiEES8_PS3_EET2_RT_T0_T1_SA_, symObjAddr: 0x25DC, symBinAddr: 0x100004E14, symSize: 0x90 }
  - { offsetInCU: 0x8494, offset: 0x8494, size: 0x8, addend: 0x0, symName: __ZNSt3__114__unwrap_rangeB8ue170006INS_11__wrap_iterIPKiEES3_EENS_4pairIT0_S6_EET_S8_, symObjAddr: 0x266C, symBinAddr: 0x100004EA4, symSize: 0x70 }
  - { offsetInCU: 0x84E0, offset: 0x84E0, size: 0x8, addend: 0x0, symName: __ZNSt3__135__uninitialized_allocator_copy_implB8ue170006INS_9allocatorINS_7complexIdEEEEPKiS6_PS3_EET2_RT_T0_T1_S8_, symObjAddr: 0x26DC, symBinAddr: 0x100004F14, symSize: 0xF4 }
  - { offsetInCU: 0x857E, offset: 0x857E, size: 0x8, addend: 0x0, symName: __ZNSt3__113__unwrap_iterB8ue170006IPNS_7complexIdEENS_18__unwrap_iter_implIS3_Lb1EEELi0EEEDTclsrT0_8__unwrapclsr3stdE7declvalIT_EEEES7_, symObjAddr: 0x27D0, symBinAddr: 0x100005008, symSize: 0x24 }
  - { offsetInCU: 0x85C2, offset: 0x85C2, size: 0x8, addend: 0x0, symName: __ZNSt3__113__rewrap_iterB8ue170006IPNS_7complexIdEES3_NS_18__unwrap_iter_implIS3_Lb1EEEEET_S6_T0_, symObjAddr: 0x27F4, symBinAddr: 0x10000502C, symSize: 0x3C }
  - { offsetInCU: 0x8617, offset: 0x8617, size: 0x8, addend: 0x0, symName: __ZNSt3__19make_pairB8ue170006IPKiS2_EENS_4pairINS_18__unwrap_ref_decayIT_E4typeENS4_IT0_E4typeEEEOS5_OS8_, symObjAddr: 0x2830, symBinAddr: 0x100005068, symSize: 0x38 }
  - { offsetInCU: 0x8666, offset: 0x8666, size: 0x8, addend: 0x0, symName: __ZNSt3__113__unwrap_iterB8ue170006INS_11__wrap_iterIPKiEENS_18__unwrap_iter_implIS4_Lb1EEELi0EEEDTclsrT0_8__unwrapclsr3stdE7declvalIT_EEEES8_, symObjAddr: 0x2868, symBinAddr: 0x1000050A0, symSize: 0x2C }
  - { offsetInCU: 0x87D1, offset: 0x87D1, size: 0x8, addend: 0x0, symName: __ZNSt3__112__to_addressB8ue170006INS_11__wrap_iterIPKiEEvEEu7__decayIDTclsr19__to_address_helperIT_EE6__callclsr3stdE7declvalIRKS5_EEEEES7_, symObjAddr: 0x292C, symBinAddr: 0x100005164, symSize: 0x24 }
  - { offsetInCU: 0x88AC, offset: 0x88AC, size: 0x8, addend: 0x0, symName: __ZNSt3__112__to_addressB8ue170006IKiEEPT_S3_, symObjAddr: 0x29AC, symBinAddr: 0x1000051E4, symSize: 0x14 }
  - { offsetInCU: 0x88E1, offset: 0x88E1, size: 0x8, addend: 0x0, symName: __ZNSt3__122__make_exception_guardB8ue170006INS_29_AllocatorDestroyRangeReverseINS_9allocatorINS_7complexIdEEEEPS4_EEEENS_28__exception_guard_exceptionsIT_EES9_, symObjAddr: 0x29C0, symBinAddr: 0x1000051F8, symSize: 0x4C }
  - { offsetInCU: 0x8917, offset: 0x8917, size: 0x8, addend: 0x0, symName: __ZNSt3__119__allocator_destroyB8ue170006INS_9allocatorINS_7complexIdEEEENS_16reverse_iteratorIPS3_EES7_EEvRT_T0_T1_, symObjAddr: 0x2C64, symBinAddr: 0x10000549C, symSize: 0x70 }
  - { offsetInCU: 0x897A, offset: 0x897A, size: 0x8, addend: 0x0, symName: __ZNSt3__1neB8ue170006IPNS_7complexIdEES3_EEbRKNS_16reverse_iteratorIT_EERKNS4_IT0_EE, symObjAddr: 0x2D08, symBinAddr: 0x100005540, symSize: 0x48 }
  - { offsetInCU: 0x89C6, offset: 0x89C6, size: 0x8, addend: 0x0, symName: __ZNSt3__112__to_addressB8ue170006INS_16reverse_iteratorIPNS_7complexIdEEEEvEEu7__decayIDTclsr19__to_address_helperIT_EE6__callclsr3stdE7declvalIRKS6_EEEEES8_, symObjAddr: 0x2D50, symBinAddr: 0x100005588, symSize: 0x24 }
  - { offsetInCU: 0x8A78, offset: 0x8A78, size: 0x8, addend: 0x0, symName: __ZNSt3__13maxB8ue170006ImEERKT_S3_S3_, symObjAddr: 0x3308, symBinAddr: 0x100005B40, symSize: 0x2C }
  - { offsetInCU: 0x8ABB, offset: 0x8ABB, size: 0x8, addend: 0x0, symName: __ZNSt3__13maxB8ue170006ImNS_6__lessIvvEEEERKT_S5_S5_T0_, symObjAddr: 0x3334, symBinAddr: 0x100005B6C, symSize: 0x54 }
  - { offsetInCU: 0x8B15, offset: 0x8B15, size: 0x8, addend: 0x0, symName: __ZNSt3__142__uninitialized_allocator_move_if_noexceptB8ue170006INS_9allocatorINS_7complexIdEEEENS_16reverse_iteratorIPS3_EES7_S3_vEET1_RT_T0_SB_S8_, symObjAddr: 0x3680, symBinAddr: 0x100005EB8, symSize: 0x78 }
  - { offsetInCU: 0x8B92, offset: 0x8B92, size: 0x8, addend: 0x0, symName: __ZNSt3__14swapB8ue170006IPNS_7complexIdEEEENS_9enable_ifIXaasr21is_move_constructibleIT_EE5valuesr18is_move_assignableIS5_EE5valueEvE4typeERS5_S8_, symObjAddr: 0x36F8, symBinAddr: 0x100005F30, symSize: 0x3C }
  - { offsetInCU: 0x8BE3, offset: 0x8BE3, size: 0x8, addend: 0x0, symName: __ZNSt3__14moveB8ue170006INS_16reverse_iteratorIPNS_7complexIdEEEES5_EET0_T_S7_S6_, symObjAddr: 0x3734, symBinAddr: 0x100005F6C, symSize: 0x78 }
  - { offsetInCU: 0x8C3D, offset: 0x8C3D, size: 0x8, addend: 0x0, symName: __ZNSt3__16__moveB8ue170006INS_17_ClassicAlgPolicyENS_16reverse_iteratorIPNS_7complexIdEEEES6_S6_EENS_4pairIT0_T2_EES8_T1_S9_, symObjAddr: 0x37AC, symBinAddr: 0x100005FE4, symSize: 0x64 }
  - { offsetInCU: 0x8CA9, offset: 0x8CA9, size: 0x8, addend: 0x0, symName: __ZNSt3__123__dispatch_copy_or_moveB8ue170006INS_17_ClassicAlgPolicyENS_11__move_loopIS1_EENS_14__move_trivialENS_16reverse_iteratorIPNS_7complexIdEEEES9_S9_EENS_4pairIT2_T4_EESB_T3_SC_, symObjAddr: 0x3810, symBinAddr: 0x100006048, symSize: 0x64 }
  - { offsetInCU: 0x8D27, offset: 0x8D27, size: 0x8, addend: 0x0, symName: __ZNSt3__121__unwrap_and_dispatchB8ue170006INS_10__overloadINS_11__move_loopINS_17_ClassicAlgPolicyEEENS_14__move_trivialEEENS_16reverse_iteratorIPNS_7complexIdEEEESB_SB_Li0EEENS_4pairIT0_T2_EESD_T1_SE_, symObjAddr: 0x3874, symBinAddr: 0x1000060AC, symSize: 0x12C }
  - { offsetInCU: 0x8DB7, offset: 0x8DB7, size: 0x8, addend: 0x0, symName: __ZNSt3__114__unwrap_rangeB8ue170006INS_16reverse_iteratorIPNS_7complexIdEEEES5_EENS_4pairIT0_S7_EET_S9_, symObjAddr: 0x39A0, symBinAddr: 0x1000061D8, symSize: 0x84 }
  - { offsetInCU: 0x8F32, offset: 0x8F32, size: 0x8, addend: 0x0, symName: __ZNSt3__113__unwrap_iterB8ue170006INS_16reverse_iteratorIPNS_7complexIdEEEENS_18__unwrap_iter_implIS5_Lb0EEELi0EEEDTclsrT0_8__unwrapclsr3stdE7declvalIT_EEEES9_, symObjAddr: 0x3AC4, symBinAddr: 0x1000062FC, symSize: 0x44 }
  - { offsetInCU: 0x8F76, offset: 0x8F76, size: 0x8, addend: 0x0, symName: __ZNSt3__19make_pairB8ue170006INS_16reverse_iteratorIPNS_7complexIdEEEES5_EENS_4pairINS_18__unwrap_ref_decayIT_E4typeENS7_IT0_E4typeEEEOS8_OSB_, symObjAddr: 0x3B08, symBinAddr: 0x100006340, symSize: 0x38 }
  - { offsetInCU: 0x8FC5, offset: 0x8FC5, size: 0x8, addend: 0x0, symName: __ZNSt3__114__rewrap_rangeB8ue170006INS_16reverse_iteratorIPNS_7complexIdEEEES5_EET_S6_T0_, symObjAddr: 0x3B40, symBinAddr: 0x100006378, symSize: 0x5C }
  - { offsetInCU: 0x9011, offset: 0x9011, size: 0x8, addend: 0x0, symName: __ZNSt3__113__rewrap_iterB8ue170006INS_16reverse_iteratorIPNS_7complexIdEEEES5_NS_18__unwrap_iter_implIS5_Lb0EEEEET_S8_T0_, symObjAddr: 0x3B9C, symBinAddr: 0x1000063D4, symSize: 0x74 }
  - { offsetInCU: 0x9118, offset: 0x9118, size: 0x8, addend: 0x0, symName: __ZNSt3__122__make_exception_guardB8ue170006INS_6vectorIiNS_9allocatorIiEEE16__destroy_vectorEEENS_28__exception_guard_exceptionsIT_EES7_, symObjAddr: 0x40AC, symBinAddr: 0x1000068E4, symSize: 0x40 }
  - { offsetInCU: 0x914D, offset: 0x914D, size: 0x8, addend: 0x0, symName: __ZNSt3__119__allocate_at_leastB8ue170006INS_9allocatorIiEEEENS_19__allocation_resultINS_16allocator_traitsIT_E7pointerEEERS5_m, symObjAddr: 0x4498, symBinAddr: 0x100006CD0, symSize: 0x40 }
  - { offsetInCU: 0x9190, offset: 0x9190, size: 0x8, addend: 0x0, symName: __ZNSt3__112__to_addressB8ue170006IiEEPT_S2_, symObjAddr: 0x47BC, symBinAddr: 0x100006FF4, symSize: 0x14 }
  - { offsetInCU: 0x91C5, offset: 0x91C5, size: 0x8, addend: 0x0, symName: __ZNSt3__19use_facetB8ue170006INS_5ctypeIcEEEERKT_RKNS_6localeE, symObjAddr: 0x4F10, symBinAddr: 0x100007748, symSize: 0x2C }
  - { offsetInCU: 0x9AEA, offset: 0x9AEA, size: 0x8, addend: 0x0, symName: __ZSt28__throw_bad_array_new_lengthB8ue170006v, symObjAddr: 0x1A5C, symBinAddr: 0x100004294, symSize: 0x34 }
  - { offsetInCU: 0xA147, offset: 0xA147, size: 0x8, addend: 0x0, symName: __ZNSt3__16vectorINS_7complexIdEENS_9allocatorIS2_EEE26__swap_out_circular_bufferERNS_14__split_bufferIS2_RS4_EE, symObjAddr: 0x31CC, symBinAddr: 0x100005A04, symSize: 0x110 }
  - { offsetInCU: 0xC45B, offset: 0xC45B, size: 0x8, addend: 0x0, symName: __Z4acosB8ue170006IiENSt3__19enable_ifIXsr3std11is_integralIT_EE5valueEdE4typeES2_, symObjAddr: 0x0, symBinAddr: 0x100002838, symSize: 0x30 }
  - { offsetInCU: 0xC493, offset: 0xC493, size: 0x8, addend: 0x0, symName: __Z3fftRNSt3__16vectorINS_7complexIdEENS_9allocatorIS2_EEEEb, symObjAddr: 0x30, symBinAddr: 0x100002868, symSize: 0x3F4 }
  - { offsetInCU: 0xC555, offset: 0xC555, size: 0x8, addend: 0x0, symName: __ZNKSt3__16vectorINS_7complexIdEENS_9allocatorIS2_EEE4sizeB8ue170006Ev, symObjAddr: 0x424, symBinAddr: 0x100002C5C, symSize: 0x28 }
  - { offsetInCU: 0xC57A, offset: 0xC57A, size: 0x8, addend: 0x0, symName: __ZNSt3__16vectorINS_7complexIdEENS_9allocatorIS2_EEEC1Em, symObjAddr: 0x44C, symBinAddr: 0x100002C84, symSize: 0x34 }
  - { offsetInCU: 0xC5B4, offset: 0xC5B4, size: 0x8, addend: 0x0, symName: __ZNSt3__16vectorINS_7complexIdEENS_9allocatorIS2_EEEixB8ue170006Em, symObjAddr: 0x480, symBinAddr: 0x100002CB8, symSize: 0x24 }
  - { offsetInCU: 0xC5EA, offset: 0xC5EA, size: 0x8, addend: 0x0, symName: __ZNSt3__17complexIdEC1B8ue170006Edd, symObjAddr: 0x4A4, symBinAddr: 0x100002CDC, symSize: 0x3C }
  - { offsetInCU: 0xC631, offset: 0xC631, size: 0x8, addend: 0x0, symName: __ZNSt3__17complexIdEdVB8ue170006Ed, symObjAddr: 0x928, symBinAddr: 0x100003160, symSize: 0x38 }
  - { offsetInCU: 0xC665, offset: 0xC665, size: 0x8, addend: 0x0, symName: __ZNSt3__17complexIdEmLB8ue170006IdEERS1_RKNS0_IT_EE, symObjAddr: 0x960, symBinAddr: 0x100003198, symSize: 0x70 }
  - { offsetInCU: 0xC6A2, offset: 0xC6A2, size: 0x8, addend: 0x0, symName: __ZNSt3__16vectorINS_7complexIdEENS_9allocatorIS2_EEED1B8ue170006Ev, symObjAddr: 0x9D0, symBinAddr: 0x100003208, symSize: 0x2C }
  - { offsetInCU: 0xC6CA, offset: 0xC6CA, size: 0x8, addend: 0x0, symName: __Z8multiplyRKNSt3__16vectorIiNS_9allocatorIiEEEES5_, symObjAddr: 0x9FC, symBinAddr: 0x100003234, symSize: 0x2AC }
  - { offsetInCU: 0xC778, offset: 0xC778, size: 0x8, addend: 0x0, symName: __ZNKSt3__16vectorIiNS_9allocatorIiEEE5beginB8ue170006Ev, symObjAddr: 0xCA8, symBinAddr: 0x1000034E0, symSize: 0x30 }
  - { offsetInCU: 0xC79E, offset: 0xC79E, size: 0x8, addend: 0x0, symName: __ZNKSt3__16vectorIiNS_9allocatorIiEEE3endB8ue170006Ev, symObjAddr: 0xCD8, symBinAddr: 0x100003510, symSize: 0x30 }
  - { offsetInCU: 0xC7C5, offset: 0xC7C5, size: 0x8, addend: 0x0, symName: __ZNSt3__16vectorINS_7complexIdEENS_9allocatorIS2_EEEC1INS_11__wrap_iterIPKiEELi0EEET_SB_, symObjAddr: 0xD08, symBinAddr: 0x100003540, symSize: 0x3C }
  - { offsetInCU: 0xC81D, offset: 0xC81D, size: 0x8, addend: 0x0, symName: __ZNKSt3__16vectorIiNS_9allocatorIiEEE4sizeB8ue170006Ev, symObjAddr: 0xD44, symBinAddr: 0x10000357C, symSize: 0x28 }
  - { offsetInCU: 0xC841, offset: 0xC841, size: 0x8, addend: 0x0, symName: __ZNSt3__16vectorINS_7complexIdEENS_9allocatorIS2_EEE6resizeEm, symObjAddr: 0xD6C, symBinAddr: 0x1000035A4, symSize: 0x94 }
  - { offsetInCU: 0xC886, offset: 0xC886, size: 0x8, addend: 0x0, symName: __ZNSt3__16vectorIiNS_9allocatorIiEEEC1Em, symObjAddr: 0xE00, symBinAddr: 0x100003638, symSize: 0x34 }
  - { offsetInCU: 0xC8C0, offset: 0xC8C0, size: 0x8, addend: 0x0, symName: __ZNKSt3__17complexIdE4realB8ue170006Ev, symObjAddr: 0xE34, symBinAddr: 0x10000366C, symSize: 0x18 }
  - { offsetInCU: 0xC8E5, offset: 0xC8E5, size: 0x8, addend: 0x0, symName: __ZNSt3__16vectorIiNS_9allocatorIiEEEixB8ue170006Em, symObjAddr: 0xE4C, symBinAddr: 0x100003684, symSize: 0x24 }
  - { offsetInCU: 0xC91B, offset: 0xC91B, size: 0x8, addend: 0x0, symName: __ZNSt3__16vectorIiNS_9allocatorIiEEED1B8ue170006Ev, symObjAddr: 0xE70, symBinAddr: 0x1000036A8, symSize: 0x2C }
  - { offsetInCU: 0xC944, offset: 0xC944, size: 0x8, addend: 0x0, symName: _main, symObjAddr: 0xE9C, symBinAddr: 0x1000036D4, symSize: 0x1EC }
  - { offsetInCU: 0xC9C8, offset: 0xC9C8, size: 0x8, addend: 0x0, symName: __ZNSt3__16vectorIiNS_9allocatorIiEEEC1EmRKi, symObjAddr: 0x1088, symBinAddr: 0x1000038C0, symSize: 0x3C }
  - { offsetInCU: 0xCAC1, offset: 0xCAC1, size: 0x8, addend: 0x0, symName: __ZNSt3__113basic_ostreamIcNS_11char_traitsIcEEElsB8ue170006EPFRS3_S4_E, symObjAddr: 0x10C4, symBinAddr: 0x1000038FC, symSize: 0x2C }
  - { offsetInCU: 0xCAF4, offset: 0xCAF4, size: 0x8, addend: 0x0, symName: __ZNSt3__17complexIdEC2B8ue170006Edd, symObjAddr: 0x1148, symBinAddr: 0x100003980, symSize: 0x2C }
  - { offsetInCU: 0xCB3B, offset: 0xCB3B, size: 0x8, addend: 0x0, symName: __ZNSt3__16vectorINS_7complexIdEENS_9allocatorIS2_EEEC2Em, symObjAddr: 0x1174, symBinAddr: 0x1000039AC, symSize: 0xD4 }
  - { offsetInCU: 0xCB95, offset: 0xCB95, size: 0x8, addend: 0x0, symName: __ZNSt3__117__compressed_pairIPNS_7complexIdEENS_9allocatorIS2_EEEC1B8ue170006IDnNS_18__default_init_tagEEEOT_OT0_, symObjAddr: 0x1248, symBinAddr: 0x100003A80, symSize: 0x3C }
  - { offsetInCU: 0xCBEC, offset: 0xCBEC, size: 0x8, addend: 0x0, symName: __ZNSt3__16vectorINS_7complexIdEENS_9allocatorIS2_EEE16__destroy_vectorC1B8ue170006ERS5_, symObjAddr: 0x12C4, symBinAddr: 0x100003AFC, symSize: 0x34 }
  - { offsetInCU: 0xCC24, offset: 0xCC24, size: 0x8, addend: 0x0, symName: __ZNSt3__16vectorINS_7complexIdEENS_9allocatorIS2_EEE11__vallocateB8ue170006Em, symObjAddr: 0x12F8, symBinAddr: 0x100003B30, symSize: 0xAC }
  - { offsetInCU: 0xCC66, offset: 0xCC66, size: 0x8, addend: 0x0, symName: __ZNSt3__16vectorINS_7complexIdEENS_9allocatorIS2_EEE18__construct_at_endEm, symObjAddr: 0x13A4, symBinAddr: 0x100003BDC, symSize: 0xC8 }
  - { offsetInCU: 0xCCD7, offset: 0xCCD7, size: 0x8, addend: 0x0, symName: __ZNSt3__128__exception_guard_exceptionsINS_6vectorINS_7complexIdEENS_9allocatorIS3_EEE16__destroy_vectorEE10__completeB8ue170006Ev, symObjAddr: 0x146C, symBinAddr: 0x100003CA4, symSize: 0x1C }
  - { offsetInCU: 0xCCFC, offset: 0xCCFC, size: 0x8, addend: 0x0, symName: __ZNSt3__128__exception_guard_exceptionsINS_6vectorINS_7complexIdEENS_9allocatorIS3_EEE16__destroy_vectorEED1B8ue170006Ev, symObjAddr: 0x1488, symBinAddr: 0x100003CC0, symSize: 0x2C }
  - { offsetInCU: 0xCD25, offset: 0xCD25, size: 0x8, addend: 0x0, symName: __ZNSt3__117__compressed_pairIPNS_7complexIdEENS_9allocatorIS2_EEEC2B8ue170006IDnNS_18__default_init_tagEEEOT_OT0_, symObjAddr: 0x14B4, symBinAddr: 0x100003CEC, symSize: 0x40 }
  - { offsetInCU: 0xCD7C, offset: 0xCD7C, size: 0x8, addend: 0x0, symName: __ZNSt3__122__compressed_pair_elemIPNS_7complexIdEELi0ELb0EEC2B8ue170006IDnvEEOT_, symObjAddr: 0x14F4, symBinAddr: 0x100003D2C, symSize: 0x1C }
  - { offsetInCU: 0xCDBD, offset: 0xCDBD, size: 0x8, addend: 0x0, symName: __ZNSt3__122__compressed_pair_elemINS_9allocatorINS_7complexIdEEEELi1ELb1EEC2B8ue170006ENS_18__default_init_tagE, symObjAddr: 0x1510, symBinAddr: 0x100003D48, symSize: 0x2C }
  - { offsetInCU: 0xCDF0, offset: 0xCDF0, size: 0x8, addend: 0x0, symName: __ZNSt3__19allocatorINS_7complexIdEEEC2B8ue170006Ev, symObjAddr: 0x153C, symBinAddr: 0x100003D74, symSize: 0x2C }
  - { offsetInCU: 0xCE19, offset: 0xCE19, size: 0x8, addend: 0x0, symName: __ZNSt3__116__non_trivial_ifILb1ENS_9allocatorINS_7complexIdEEEEEC2B8ue170006Ev, symObjAddr: 0x1568, symBinAddr: 0x100003DA0, symSize: 0x14 }
  - { offsetInCU: 0xCE42, offset: 0xCE42, size: 0x8, addend: 0x0, symName: __ZNSt3__128__exception_guard_exceptionsINS_6vectorINS_7complexIdEENS_9allocatorIS3_EEE16__destroy_vectorEEC1B8ue170006ES7_, symObjAddr: 0x157C, symBinAddr: 0x100003DB4, symSize: 0x34 }
  - { offsetInCU: 0xCE79, offset: 0xCE79, size: 0x8, addend: 0x0, symName: __ZNSt3__128__exception_guard_exceptionsINS_6vectorINS_7complexIdEENS_9allocatorIS3_EEE16__destroy_vectorEEC2B8ue170006ES7_, symObjAddr: 0x15B0, symBinAddr: 0x100003DE8, symSize: 0x24 }
  - { offsetInCU: 0xCEB0, offset: 0xCEB0, size: 0x8, addend: 0x0, symName: __ZNSt3__16vectorINS_7complexIdEENS_9allocatorIS2_EEE16__destroy_vectorC2B8ue170006ERS5_, symObjAddr: 0x15D4, symBinAddr: 0x100003E0C, symSize: 0x20 }
  - { offsetInCU: 0xCEE7, offset: 0xCEE7, size: 0x8, addend: 0x0, symName: __ZNKSt3__16vectorINS_7complexIdEENS_9allocatorIS2_EEE8max_sizeEv, symObjAddr: 0x15F4, symBinAddr: 0x100003E2C, symSize: 0x60 }
  - { offsetInCU: 0xCF0E, offset: 0xCF0E, size: 0x8, addend: 0x0, symName: __ZNKSt3__16vectorINS_7complexIdEENS_9allocatorIS2_EEE20__throw_length_errorB8ue170006Ev, symObjAddr: 0x1654, symBinAddr: 0x100003E8C, symSize: 0x1C }
  - { offsetInCU: 0xCF33, offset: 0xCF33, size: 0x8, addend: 0x0, symName: __ZNSt3__16vectorINS_7complexIdEENS_9allocatorIS2_EEE7__allocB8ue170006Ev, symObjAddr: 0x16B0, symBinAddr: 0x100003EE8, symSize: 0x28 }
  - { offsetInCU: 0xCF58, offset: 0xCF58, size: 0x8, addend: 0x0, symName: __ZNSt3__16vectorINS_7complexIdEENS_9allocatorIS2_EEE9__end_capB8ue170006Ev, symObjAddr: 0x16D8, symBinAddr: 0x100003F10, symSize: 0x28 }
  - { offsetInCU: 0xCF7D, offset: 0xCF7D, size: 0x8, addend: 0x0, symName: __ZNKSt3__16vectorINS_7complexIdEENS_9allocatorIS2_EEE14__annotate_newB8ue170006Em, symObjAddr: 0x1700, symBinAddr: 0x100003F38, symSize: 0xAC }
  - { offsetInCU: 0xCFBB, offset: 0xCFBB, size: 0x8, addend: 0x0, symName: __ZNSt3__116allocator_traitsINS_9allocatorINS_7complexIdEEEEE8max_sizeB8ue170006IS4_vEEmRKS4_, symObjAddr: 0x17D8, symBinAddr: 0x100004010, symSize: 0x24 }
  - { offsetInCU: 0xCFE9, offset: 0xCFE9, size: 0x8, addend: 0x0, symName: __ZNKSt3__16vectorINS_7complexIdEENS_9allocatorIS2_EEE7__allocB8ue170006Ev, symObjAddr: 0x17FC, symBinAddr: 0x100004034, symSize: 0x28 }
  - { offsetInCU: 0xD00E, offset: 0xD00E, size: 0x8, addend: 0x0, symName: __ZNSt3__114numeric_limitsIlE3maxB8ue170006Ev, symObjAddr: 0x1824, symBinAddr: 0x10000405C, symSize: 0x14 }
  - { offsetInCU: 0xD036, offset: 0xD036, size: 0x8, addend: 0x0, symName: __ZNKSt3__16__lessIvvEclB8ue170006ImmEEbRKT_RKT0_, symObjAddr: 0x1898, symBinAddr: 0x1000040D0, symSize: 0x34 }
  - { offsetInCU: 0xD089, offset: 0xD089, size: 0x8, addend: 0x0, symName: __ZNKSt3__19allocatorINS_7complexIdEEE8max_sizeB8ue170006Ev, symObjAddr: 0x18CC, symBinAddr: 0x100004104, symSize: 0x14 }
  - { offsetInCU: 0xD0AE, offset: 0xD0AE, size: 0x8, addend: 0x0, symName: __ZNKSt3__117__compressed_pairIPNS_7complexIdEENS_9allocatorIS2_EEE6secondB8ue170006Ev, symObjAddr: 0x18E0, symBinAddr: 0x100004118, symSize: 0x24 }
  - { offsetInCU: 0xD0D3, offset: 0xD0D3, size: 0x8, addend: 0x0, symName: __ZNKSt3__122__compressed_pair_elemINS_9allocatorINS_7complexIdEEEELi1ELb1EE5__getB8ue170006Ev, symObjAddr: 0x1904, symBinAddr: 0x10000413C, symSize: 0x14 }
  - { offsetInCU: 0xD0F8, offset: 0xD0F8, size: 0x8, addend: 0x0, symName: __ZNSt3__123__libcpp_numeric_limitsIlLb1EE3maxB8ue170006Ev, symObjAddr: 0x1918, symBinAddr: 0x100004150, symSize: 0x8 }
  - { offsetInCU: 0xD10C, offset: 0xD10C, size: 0x8, addend: 0x0, symName: __ZNSt12length_errorC1B8ue170006EPKc, symObjAddr: 0x1984, symBinAddr: 0x1000041BC, symSize: 0x34 }
  - { offsetInCU: 0xD143, offset: 0xD143, size: 0x8, addend: 0x0, symName: __ZNSt12length_errorC2B8ue170006EPKc, symObjAddr: 0x19B8, symBinAddr: 0x1000041F0, symSize: 0x4C }
  - { offsetInCU: 0xD17A, offset: 0xD17A, size: 0x8, addend: 0x0, symName: __ZNSt3__19allocatorINS_7complexIdEEE8allocateB8ue170006Em, symObjAddr: 0x1A04, symBinAddr: 0x10000423C, symSize: 0x58 }
  - { offsetInCU: 0xD1AD, offset: 0xD1AD, size: 0x8, addend: 0x0, symName: __ZNSt3__117__compressed_pairIPNS_7complexIdEENS_9allocatorIS2_EEE6secondB8ue170006Ev, symObjAddr: 0x1ADC, symBinAddr: 0x100004314, symSize: 0x24 }
  - { offsetInCU: 0xD1D2, offset: 0xD1D2, size: 0x8, addend: 0x0, symName: __ZNSt3__122__compressed_pair_elemINS_9allocatorINS_7complexIdEEEELi1ELb1EE5__getB8ue170006Ev, symObjAddr: 0x1B00, symBinAddr: 0x100004338, symSize: 0x14 }
  - { offsetInCU: 0xD1F7, offset: 0xD1F7, size: 0x8, addend: 0x0, symName: __ZNSt3__117__compressed_pairIPNS_7complexIdEENS_9allocatorIS2_EEE5firstB8ue170006Ev, symObjAddr: 0x1B14, symBinAddr: 0x10000434C, symSize: 0x24 }
  - { offsetInCU: 0xD21C, offset: 0xD21C, size: 0x8, addend: 0x0, symName: __ZNSt3__122__compressed_pair_elemIPNS_7complexIdEELi0ELb0EE5__getB8ue170006Ev, symObjAddr: 0x1B38, symBinAddr: 0x100004370, symSize: 0x14 }
  - { offsetInCU: 0xD241, offset: 0xD241, size: 0x8, addend: 0x0, symName: __ZNKSt3__16vectorINS_7complexIdEENS_9allocatorIS2_EEE31__annotate_contiguous_containerB8ue170006EPKvS7_S7_S7_, symObjAddr: 0x1B4C, symBinAddr: 0x100004384, symSize: 0x20 }
  - { offsetInCU: 0xD292, offset: 0xD292, size: 0x8, addend: 0x0, symName: __ZNKSt3__16vectorINS_7complexIdEENS_9allocatorIS2_EEE4dataB8ue170006Ev, symObjAddr: 0x1B6C, symBinAddr: 0x1000043A4, symSize: 0x28 }
  - { offsetInCU: 0xD2B7, offset: 0xD2B7, size: 0x8, addend: 0x0, symName: __ZNKSt3__16vectorINS_7complexIdEENS_9allocatorIS2_EEE8capacityB8ue170006Ev, symObjAddr: 0x1B94, symBinAddr: 0x1000043CC, symSize: 0x40 }
  - { offsetInCU: 0xD2DC, offset: 0xD2DC, size: 0x8, addend: 0x0, symName: __ZNKSt3__16vectorINS_7complexIdEENS_9allocatorIS2_EEE9__end_capB8ue170006Ev, symObjAddr: 0x1BE8, symBinAddr: 0x100004420, symSize: 0x28 }
  - { offsetInCU: 0xD301, offset: 0xD301, size: 0x8, addend: 0x0, symName: __ZNKSt3__117__compressed_pairIPNS_7complexIdEENS_9allocatorIS2_EEE5firstB8ue170006Ev, symObjAddr: 0x1C10, symBinAddr: 0x100004448, symSize: 0x24 }
  - { offsetInCU: 0xD326, offset: 0xD326, size: 0x8, addend: 0x0, symName: __ZNKSt3__122__compressed_pair_elemIPNS_7complexIdEELi0ELb0EE5__getB8ue170006Ev, symObjAddr: 0x1C34, symBinAddr: 0x10000446C, symSize: 0x14 }
  - { offsetInCU: 0xD364, offset: 0xD364, size: 0x8, addend: 0x0, symName: __ZNSt3__16vectorINS_7complexIdEENS_9allocatorIS2_EEE21_ConstructTransactionC1B8ue170006ERS5_m, symObjAddr: 0x1C48, symBinAddr: 0x100004480, symSize: 0x3C }
  - { offsetInCU: 0xD3AB, offset: 0xD3AB, size: 0x8, addend: 0x0, symName: __ZNSt3__116allocator_traitsINS_9allocatorINS_7complexIdEEEEE9constructB8ue170006IS3_JEvEEvRS4_PT_DpOT0_, symObjAddr: 0x1C84, symBinAddr: 0x1000044BC, symSize: 0x2C }
  - { offsetInCU: 0xD3ED, offset: 0xD3ED, size: 0x8, addend: 0x0, symName: __ZNSt3__16vectorINS_7complexIdEENS_9allocatorIS2_EEE21_ConstructTransactionD1B8ue170006Ev, symObjAddr: 0x1CB0, symBinAddr: 0x1000044E8, symSize: 0x2C }
  - { offsetInCU: 0xD416, offset: 0xD416, size: 0x8, addend: 0x0, symName: __ZNSt3__16vectorINS_7complexIdEENS_9allocatorIS2_EEE21_ConstructTransactionC2B8ue170006ERS5_m, symObjAddr: 0x1CDC, symBinAddr: 0x100004514, symSize: 0x44 }
  - { offsetInCU: 0xD45D, offset: 0xD45D, size: 0x8, addend: 0x0, symName: __ZNSt3__19allocatorINS_7complexIdEEE9constructB8ue170006IS2_JEEEvPT_DpOT0_, symObjAddr: 0x1D20, symBinAddr: 0x100004558, symSize: 0x30 }
  - { offsetInCU: 0xD49E, offset: 0xD49E, size: 0x8, addend: 0x0, symName: __ZNSt3__16vectorINS_7complexIdEENS_9allocatorIS2_EEE21_ConstructTransactionD2B8ue170006Ev, symObjAddr: 0x1D50, symBinAddr: 0x100004588, symSize: 0x20 }
  - { offsetInCU: 0xD4C7, offset: 0xD4C7, size: 0x8, addend: 0x0, symName: __ZNSt3__128__exception_guard_exceptionsINS_6vectorINS_7complexIdEENS_9allocatorIS3_EEE16__destroy_vectorEED2B8ue170006Ev, symObjAddr: 0x1D70, symBinAddr: 0x1000045A8, symSize: 0x50 }
  - { offsetInCU: 0xD4F0, offset: 0xD4F0, size: 0x8, addend: 0x0, symName: __ZNSt3__16vectorINS_7complexIdEENS_9allocatorIS2_EEE16__destroy_vectorclB8ue170006Ev, symObjAddr: 0x1DC0, symBinAddr: 0x1000045F8, symSize: 0x90 }
  - { offsetInCU: 0xD515, offset: 0xD515, size: 0x8, addend: 0x0, symName: __ZNSt3__16vectorINS_7complexIdEENS_9allocatorIS2_EEE7__clearB8ue170006Ev, symObjAddr: 0x1E50, symBinAddr: 0x100004688, symSize: 0x28 }
  - { offsetInCU: 0xD53A, offset: 0xD53A, size: 0x8, addend: 0x0, symName: __ZNKSt3__16vectorINS_7complexIdEENS_9allocatorIS2_EEE17__annotate_deleteB8ue170006Ev, symObjAddr: 0x1E78, symBinAddr: 0x1000046B0, symSize: 0xB8 }
  - { offsetInCU: 0xD55F, offset: 0xD55F, size: 0x8, addend: 0x0, symName: __ZNSt3__116allocator_traitsINS_9allocatorINS_7complexIdEEEEE10deallocateB8ue170006ERS4_PS3_m, symObjAddr: 0x1F30, symBinAddr: 0x100004768, symSize: 0x34 }
  - { offsetInCU: 0xD5A1, offset: 0xD5A1, size: 0x8, addend: 0x0, symName: __ZNSt3__16vectorINS_7complexIdEENS_9allocatorIS2_EEE22__base_destruct_at_endB8ue170006EPS2_, symObjAddr: 0x1F64, symBinAddr: 0x10000479C, symSize: 0x8C }
  - { offsetInCU: 0xD5E4, offset: 0xD5E4, size: 0x8, addend: 0x0, symName: __ZNSt3__116allocator_traitsINS_9allocatorINS_7complexIdEEEEE7destroyB8ue170006IS3_vEEvRS4_PT_, symObjAddr: 0x1FF0, symBinAddr: 0x100004828, symSize: 0x2C }
  - { offsetInCU: 0xD621, offset: 0xD621, size: 0x8, addend: 0x0, symName: __ZNSt3__19allocatorINS_7complexIdEEE7destroyB8ue170006EPS2_, symObjAddr: 0x201C, symBinAddr: 0x100004854, symSize: 0x14 }
  - { offsetInCU: 0xD654, offset: 0xD654, size: 0x8, addend: 0x0, symName: __ZNSt3__19allocatorINS_7complexIdEEE10deallocateB8ue170006EPS2_m, symObjAddr: 0x2030, symBinAddr: 0x100004868, symSize: 0x40 }
  - { offsetInCU: 0xD695, offset: 0xD695, size: 0x8, addend: 0x0, symName: __ZNSt3__16vectorINS_7complexIdEENS_9allocatorIS2_EEED2B8ue170006Ev, symObjAddr: 0x20EC, symBinAddr: 0x100004924, symSize: 0x40 }
  - { offsetInCU: 0xD6BE, offset: 0xD6BE, size: 0x8, addend: 0x0, symName: __ZNKSt3__17complexIdE4imagB8ue170006Ev, symObjAddr: 0x212C, symBinAddr: 0x100004964, symSize: 0x18 }
  - { offsetInCU: 0xD6E3, offset: 0xD6E3, size: 0x8, addend: 0x0, symName: __ZNSt3__17complexIdEpLB8ue170006IdEERS1_RKNS0_IT_EE, symObjAddr: 0x21D4, symBinAddr: 0x100004A0C, symSize: 0x60 }
  - { offsetInCU: 0xD720, offset: 0xD720, size: 0x8, addend: 0x0, symName: __ZNSt3__17complexIdEmIB8ue170006IdEERS1_RKNS0_IT_EE, symObjAddr: 0x2234, symBinAddr: 0x100004A6C, symSize: 0x60 }
  - { offsetInCU: 0xD75D, offset: 0xD75D, size: 0x8, addend: 0x0, symName: __ZNKSt3__16vectorIiNS_9allocatorIiEEE11__make_iterB8ue170006EPKi, symObjAddr: 0x2294, symBinAddr: 0x100004ACC, symSize: 0x30 }
  - { offsetInCU: 0xD791, offset: 0xD791, size: 0x8, addend: 0x0, symName: __ZNSt3__111__wrap_iterIPKiEC1B8ue170006ES2_, symObjAddr: 0x22C4, symBinAddr: 0x100004AFC, symSize: 0x34 }
  - { offsetInCU: 0xD7C8, offset: 0xD7C8, size: 0x8, addend: 0x0, symName: __ZNSt3__111__wrap_iterIPKiEC2B8ue170006ES2_, symObjAddr: 0x22F8, symBinAddr: 0x100004B30, symSize: 0x20 }
  - { offsetInCU: 0xD7FF, offset: 0xD7FF, size: 0x8, addend: 0x0, symName: __ZNSt3__16vectorINS_7complexIdEENS_9allocatorIS2_EEEC2INS_11__wrap_iterIPKiEELi0EEET_SB_, symObjAddr: 0x2318, symBinAddr: 0x100004B50, symSize: 0x94 }
  - { offsetInCU: 0xD874, offset: 0xD874, size: 0x8, addend: 0x0, symName: __ZNSt3__16vectorINS_7complexIdEENS_9allocatorIS2_EEE16__init_with_sizeB8ue170006INS_11__wrap_iterIPKiEESA_EEvT_T0_m, symObjAddr: 0x23E8, symBinAddr: 0x100004C20, symSize: 0xC8 }
  - { offsetInCU: 0xD8E7, offset: 0xD8E7, size: 0x8, addend: 0x0, symName: __ZNKSt3__111__wrap_iterIPKiE4baseB8ue170006Ev, symObjAddr: 0x2528, symBinAddr: 0x100004D60, symSize: 0x18 }
  - { offsetInCU: 0xD90B, offset: 0xD90B, size: 0x8, addend: 0x0, symName: __ZNSt3__16vectorINS_7complexIdEENS_9allocatorIS2_EEE18__construct_at_endINS_11__wrap_iterIPKiEESA_EEvT_T0_m, symObjAddr: 0x2540, symBinAddr: 0x100004D78, symSize: 0x9C }
  - { offsetInCU: 0xD99E, offset: 0xD99E, size: 0x8, addend: 0x0, symName: __ZNSt3__14pairIPKiS2_EC1B8ue170006IS2_S2_LPv0EEEOT_OT0_, symObjAddr: 0x2894, symBinAddr: 0x1000050CC, symSize: 0x3C }
  - { offsetInCU: 0xD9FB, offset: 0xD9FB, size: 0x8, addend: 0x0, symName: __ZNSt3__14pairIPKiS2_EC2B8ue170006IS2_S2_LPv0EEEOT_OT0_, symObjAddr: 0x28D0, symBinAddr: 0x100005108, symSize: 0x34 }
  - { offsetInCU: 0xDA58, offset: 0xDA58, size: 0x8, addend: 0x0, symName: __ZNSt3__118__unwrap_iter_implINS_11__wrap_iterIPKiEELb1EE8__unwrapB8ue170006ES4_, symObjAddr: 0x2904, symBinAddr: 0x10000513C, symSize: 0x28 }
  - { offsetInCU: 0xDA85, offset: 0xDA85, size: 0x8, addend: 0x0, symName: __ZNSt3__119__to_address_helperINS_11__wrap_iterIPKiEEvE6__callB8ue170006ERKS4_, symObjAddr: 0x2950, symBinAddr: 0x100005188, symSize: 0x30 }
  - { offsetInCU: 0xDAA8, offset: 0xDAA8, size: 0x8, addend: 0x0, symName: __ZNSt3__114pointer_traitsINS_11__wrap_iterIPKiEEE10to_addressB8ue170006ES4_, symObjAddr: 0x2980, symBinAddr: 0x1000051B8, symSize: 0x2C }
  - { offsetInCU: 0xDACB, offset: 0xDACB, size: 0x8, addend: 0x0, symName: __ZNSt3__129_AllocatorDestroyRangeReverseINS_9allocatorINS_7complexIdEEEEPS3_EC1B8ue170006ERS4_RS5_S8_, symObjAddr: 0x2A0C, symBinAddr: 0x100005244, symSize: 0x44 }
  - { offsetInCU: 0xDB21, offset: 0xDB21, size: 0x8, addend: 0x0, symName: __ZNSt3__116allocator_traitsINS_9allocatorINS_7complexIdEEEEE9constructB8ue170006IS3_JRKiEvEEvRS4_PT_DpOT0_, symObjAddr: 0x2A50, symBinAddr: 0x100005288, symSize: 0x34 }
  - { offsetInCU: 0xDB78, offset: 0xDB78, size: 0x8, addend: 0x0, symName: __ZNSt3__128__exception_guard_exceptionsINS_29_AllocatorDestroyRangeReverseINS_9allocatorINS_7complexIdEEEEPS4_EEE10__completeB8ue170006Ev, symObjAddr: 0x2A84, symBinAddr: 0x1000052BC, symSize: 0x1C }
  - { offsetInCU: 0xDB9D, offset: 0xDB9D, size: 0x8, addend: 0x0, symName: __ZNSt3__128__exception_guard_exceptionsINS_29_AllocatorDestroyRangeReverseINS_9allocatorINS_7complexIdEEEEPS4_EEED1B8ue170006Ev, symObjAddr: 0x2AA0, symBinAddr: 0x1000052D8, symSize: 0x2C }
  - { offsetInCU: 0xDBC6, offset: 0xDBC6, size: 0x8, addend: 0x0, symName: __ZNSt3__128__exception_guard_exceptionsINS_29_AllocatorDestroyRangeReverseINS_9allocatorINS_7complexIdEEEEPS4_EEEC1B8ue170006ES7_, symObjAddr: 0x2ACC, symBinAddr: 0x100005304, symSize: 0x34 }
  - { offsetInCU: 0xDBFE, offset: 0xDBFE, size: 0x8, addend: 0x0, symName: __ZNSt3__128__exception_guard_exceptionsINS_29_AllocatorDestroyRangeReverseINS_9allocatorINS_7complexIdEEEEPS4_EEEC2B8ue170006ES7_, symObjAddr: 0x2B00, symBinAddr: 0x100005338, symSize: 0x30 }
  - { offsetInCU: 0xDC36, offset: 0xDC36, size: 0x8, addend: 0x0, symName: __ZNSt3__129_AllocatorDestroyRangeReverseINS_9allocatorINS_7complexIdEEEEPS3_EC2B8ue170006ERS4_RS5_S8_, symObjAddr: 0x2B30, symBinAddr: 0x100005368, symSize: 0x38 }
  - { offsetInCU: 0xDC8C, offset: 0xDC8C, size: 0x8, addend: 0x0, symName: __ZNSt3__19allocatorINS_7complexIdEEE9constructB8ue170006IS2_JRKiEEEvPT_DpOT0_, symObjAddr: 0x2B68, symBinAddr: 0x1000053A0, symSize: 0x44 }
  - { offsetInCU: 0xDCE1, offset: 0xDCE1, size: 0x8, addend: 0x0, symName: __ZNSt3__128__exception_guard_exceptionsINS_29_AllocatorDestroyRangeReverseINS_9allocatorINS_7complexIdEEEEPS4_EEED2B8ue170006Ev, symObjAddr: 0x2BAC, symBinAddr: 0x1000053E4, symSize: 0x50 }
  - { offsetInCU: 0xDD0A, offset: 0xDD0A, size: 0x8, addend: 0x0, symName: __ZNKSt3__129_AllocatorDestroyRangeReverseINS_9allocatorINS_7complexIdEEEEPS3_EclB8ue170006Ev, symObjAddr: 0x2BFC, symBinAddr: 0x100005434, symSize: 0x68 }
  - { offsetInCU: 0xDD2F, offset: 0xDD2F, size: 0x8, addend: 0x0, symName: __ZNSt3__116reverse_iteratorIPNS_7complexIdEEEC1B8ue170006ES3_, symObjAddr: 0x2CD4, symBinAddr: 0x10000550C, symSize: 0x34 }
  - { offsetInCU: 0xDD66, offset: 0xDD66, size: 0x8, addend: 0x0, symName: __ZNSt3__116reverse_iteratorIPNS_7complexIdEEEppB8ue170006Ev, symObjAddr: 0x2D74, symBinAddr: 0x1000055AC, symSize: 0x20 }
  - { offsetInCU: 0xDD8B, offset: 0xDD8B, size: 0x8, addend: 0x0, symName: __ZNKSt3__116reverse_iteratorIPNS_7complexIdEEE4baseB8ue170006Ev, symObjAddr: 0x2D94, symBinAddr: 0x1000055CC, symSize: 0x18 }
  - { offsetInCU: 0xDDB5, offset: 0xDDB5, size: 0x8, addend: 0x0, symName: __ZNSt3__119__to_address_helperINS_16reverse_iteratorIPNS_7complexIdEEEEvE6__callB8ue170006ERKS5_, symObjAddr: 0x2DAC, symBinAddr: 0x1000055E4, symSize: 0x38 }
  - { offsetInCU: 0xDDD8, offset: 0xDDD8, size: 0x8, addend: 0x0, symName: __ZNKSt3__116reverse_iteratorIPNS_7complexIdEEEptB8ue170006Ev, symObjAddr: 0x2DE4, symBinAddr: 0x10000561C, symSize: 0x24 }
  - { offsetInCU: 0xDDFD, offset: 0xDDFD, size: 0x8, addend: 0x0, symName: __ZNKSt3__116reverse_iteratorIPNS_7complexIdEEEdeB8ue170006Ev, symObjAddr: 0x2E08, symBinAddr: 0x100005640, symSize: 0x28 }
  - { offsetInCU: 0xDE30, offset: 0xDE30, size: 0x8, addend: 0x0, symName: __ZNSt3__116reverse_iteratorIPNS_7complexIdEEEC2B8ue170006ES3_, symObjAddr: 0x2E30, symBinAddr: 0x100005668, symSize: 0x28 }
  - { offsetInCU: 0xDE67, offset: 0xDE67, size: 0x8, addend: 0x0, symName: __ZNSt3__118__unwrap_iter_implIPNS_7complexIdEELb1EE8__unwrapB8ue170006ES3_, symObjAddr: 0x2E58, symBinAddr: 0x100005690, symSize: 0x24 }
  - { offsetInCU: 0xDE8A, offset: 0xDE8A, size: 0x8, addend: 0x0, symName: __ZNSt3__118__unwrap_iter_implIPNS_7complexIdEELb1EE8__rewrapB8ue170006ES3_S3_, symObjAddr: 0x2E7C, symBinAddr: 0x1000056B4, symSize: 0x50 }
  - { offsetInCU: 0xDEBA, offset: 0xDEBA, size: 0x8, addend: 0x0, symName: __ZNSt3__16vectorINS_7complexIdEENS_9allocatorIS2_EEE8__appendEm, symObjAddr: 0x2ECC, symBinAddr: 0x100005704, symSize: 0x108 }
  - { offsetInCU: 0xDF15, offset: 0xDF15, size: 0x8, addend: 0x0, symName: __ZNSt3__16vectorINS_7complexIdEENS_9allocatorIS2_EEE17__destruct_at_endB8ue170006EPS2_, symObjAddr: 0x2FD4, symBinAddr: 0x10000580C, symSize: 0x4C }
  - { offsetInCU: 0xDF57, offset: 0xDF57, size: 0x8, addend: 0x0, symName: __ZNKSt3__16vectorINS_7complexIdEENS_9allocatorIS2_EEE11__recommendB8ue170006Em, symObjAddr: 0x3020, symBinAddr: 0x100005858, symSize: 0xB4 }
  - { offsetInCU: 0xDFAB, offset: 0xDFAB, size: 0x8, addend: 0x0, symName: __ZNSt3__114__split_bufferINS_7complexIdEERNS_9allocatorIS2_EEEC1EmmS5_, symObjAddr: 0x30D4, symBinAddr: 0x10000590C, symSize: 0x44 }
  - { offsetInCU: 0xDFFF, offset: 0xDFFF, size: 0x8, addend: 0x0, symName: __ZNSt3__114__split_bufferINS_7complexIdEERNS_9allocatorIS2_EEE18__construct_at_endEm, symObjAddr: 0x3118, symBinAddr: 0x100005950, symSize: 0xB4 }
  - { offsetInCU: 0xE043, offset: 0xE043, size: 0x8, addend: 0x0, symName: __ZNSt3__114__split_bufferINS_7complexIdEERNS_9allocatorIS2_EEED1Ev, symObjAddr: 0x32DC, symBinAddr: 0x100005B14, symSize: 0x2C }
  - { offsetInCU: 0xE06E, offset: 0xE06E, size: 0x8, addend: 0x0, symName: __ZNSt3__114__split_bufferINS_7complexIdEERNS_9allocatorIS2_EEEC2EmmS5_, symObjAddr: 0x3388, symBinAddr: 0x100005BC0, symSize: 0xD4 }
  - { offsetInCU: 0xE0E0, offset: 0xE0E0, size: 0x8, addend: 0x0, symName: __ZNSt3__117__compressed_pairIPNS_7complexIdEERNS_9allocatorIS2_EEEC1B8ue170006IDnS6_EEOT_OT0_, symObjAddr: 0x345C, symBinAddr: 0x100005C94, symSize: 0x3C }
  - { offsetInCU: 0xE137, offset: 0xE137, size: 0x8, addend: 0x0, symName: __ZNSt3__114__split_bufferINS_7complexIdEERNS_9allocatorIS2_EEE7__allocB8ue170006Ev, symObjAddr: 0x3498, symBinAddr: 0x100005CD0, symSize: 0x28 }
  - { offsetInCU: 0xE15C, offset: 0xE15C, size: 0x8, addend: 0x0, symName: __ZNSt3__114__split_bufferINS_7complexIdEERNS_9allocatorIS2_EEE9__end_capB8ue170006Ev, symObjAddr: 0x34C0, symBinAddr: 0x100005CF8, symSize: 0x28 }
  - { offsetInCU: 0xE181, offset: 0xE181, size: 0x8, addend: 0x0, symName: __ZNSt3__117__compressed_pairIPNS_7complexIdEERNS_9allocatorIS2_EEEC2B8ue170006IDnS6_EEOT_OT0_, symObjAddr: 0x34E8, symBinAddr: 0x100005D20, symSize: 0x48 }
  - { offsetInCU: 0xE1D8, offset: 0xE1D8, size: 0x8, addend: 0x0, symName: __ZNSt3__122__compressed_pair_elemIRNS_9allocatorINS_7complexIdEEEELi1ELb0EEC2B8ue170006IS5_vEEOT_, symObjAddr: 0x3530, symBinAddr: 0x100005D68, symSize: 0x20 }
  - { offsetInCU: 0xE219, offset: 0xE219, size: 0x8, addend: 0x0, symName: __ZNSt3__117__compressed_pairIPNS_7complexIdEERNS_9allocatorIS2_EEE6secondB8ue170006Ev, symObjAddr: 0x3550, symBinAddr: 0x100005D88, symSize: 0x28 }
  - { offsetInCU: 0xE23E, offset: 0xE23E, size: 0x8, addend: 0x0, symName: __ZNSt3__122__compressed_pair_elemIRNS_9allocatorINS_7complexIdEEEELi1ELb0EE5__getB8ue170006Ev, symObjAddr: 0x3578, symBinAddr: 0x100005DB0, symSize: 0x18 }
  - { offsetInCU: 0xE263, offset: 0xE263, size: 0x8, addend: 0x0, symName: __ZNSt3__117__compressed_pairIPNS_7complexIdEERNS_9allocatorIS2_EEE5firstB8ue170006Ev, symObjAddr: 0x3590, symBinAddr: 0x100005DC8, symSize: 0x24 }
  - { offsetInCU: 0xE292, offset: 0xE292, size: 0x8, addend: 0x0, symName: __ZNSt3__114__split_bufferINS_7complexIdEERNS_9allocatorIS2_EEE21_ConstructTransactionC1B8ue170006EPPS2_m, symObjAddr: 0x35B4, symBinAddr: 0x100005DEC, symSize: 0x3C }
  - { offsetInCU: 0xE2D7, offset: 0xE2D7, size: 0x8, addend: 0x0, symName: __ZNSt3__114__split_bufferINS_7complexIdEERNS_9allocatorIS2_EEE21_ConstructTransactionD1B8ue170006Ev, symObjAddr: 0x35F0, symBinAddr: 0x100005E28, symSize: 0x2C }
  - { offsetInCU: 0xE300, offset: 0xE300, size: 0x8, addend: 0x0, symName: __ZNSt3__114__split_bufferINS_7complexIdEERNS_9allocatorIS2_EEE21_ConstructTransactionC2B8ue170006EPPS2_m, symObjAddr: 0x361C, symBinAddr: 0x100005E54, symSize: 0x44 }
  - { offsetInCU: 0xE345, offset: 0xE345, size: 0x8, addend: 0x0, symName: __ZNSt3__114__split_bufferINS_7complexIdEERNS_9allocatorIS2_EEE21_ConstructTransactionD2B8ue170006Ev, symObjAddr: 0x3660, symBinAddr: 0x100005E98, symSize: 0x20 }
  - { offsetInCU: 0xE391, offset: 0xE391, size: 0x8, addend: 0x0, symName: __ZNKSt3__111__move_loopINS_17_ClassicAlgPolicyEEclB8ue170006INS_16reverse_iteratorIPNS_7complexIdEEEES8_S8_EENS_4pairIT_T1_EESA_T0_SB_, symObjAddr: 0x3A24, symBinAddr: 0x10000625C, symSize: 0xA0 }
  - { offsetInCU: 0xE400, offset: 0xE400, size: 0x8, addend: 0x0, symName: __ZNSt3__18_IterOpsINS_17_ClassicAlgPolicyEE11__iter_moveB8ue170006IRNS_16reverse_iteratorIPNS_7complexIdEEEEEENS_9enable_ifIXsr12is_referenceIDTdeclsr3stdE7declvalIRT_EEEEE5valueEDTclsr3stdE4movedeclsr3stdE7declvalISC_EEEEE4typeEOSB_, symObjAddr: 0x3C10, symBinAddr: 0x100006448, symSize: 0x28 }
  - { offsetInCU: 0xE42C, offset: 0xE42C, size: 0x8, addend: 0x0, symName: __ZNSt3__18_IterOpsINS_17_ClassicAlgPolicyEE25__validate_iter_referenceB8ue170006IRNS_16reverse_iteratorIPNS_7complexIdEEEEEEvv, symObjAddr: 0x3C38, symBinAddr: 0x100006470, symSize: 0x4 }
  - { offsetInCU: 0xE44A, offset: 0xE44A, size: 0x8, addend: 0x0, symName: __ZNSt3__118__unwrap_iter_implINS_16reverse_iteratorIPNS_7complexIdEEEELb0EE8__unwrapB8ue170006ES5_, symObjAddr: 0x3C3C, symBinAddr: 0x100006474, symSize: 0x24 }
  - { offsetInCU: 0xE472, offset: 0xE472, size: 0x8, addend: 0x0, symName: __ZNSt3__14pairINS_16reverse_iteratorIPNS_7complexIdEEEES5_EC1B8ue170006IS5_S5_LPv0EEEOT_OT0_, symObjAddr: 0x3C60, symBinAddr: 0x100006498, symSize: 0x3C }
  - { offsetInCU: 0xE4CF, offset: 0xE4CF, size: 0x8, addend: 0x0, symName: __ZNSt3__14pairINS_16reverse_iteratorIPNS_7complexIdEEEES5_EC2B8ue170006IS5_S5_LPv0EEEOT_OT0_, symObjAddr: 0x3C9C, symBinAddr: 0x1000064D4, symSize: 0x34 }
  - { offsetInCU: 0xE52C, offset: 0xE52C, size: 0x8, addend: 0x0, symName: __ZNSt3__118__unwrap_iter_implINS_16reverse_iteratorIPNS_7complexIdEEEELb0EE8__rewrapB8ue170006ES5_S5_, symObjAddr: 0x3CD0, symBinAddr: 0x100006508, symSize: 0x2C }
  - { offsetInCU: 0xE559, offset: 0xE559, size: 0x8, addend: 0x0, symName: __ZNSt3__114__split_bufferINS_7complexIdEERNS_9allocatorIS2_EEED2Ev, symObjAddr: 0x3CFC, symBinAddr: 0x100006534, symSize: 0x8C }
  - { offsetInCU: 0xE584, offset: 0xE584, size: 0x8, addend: 0x0, symName: __ZNSt3__114__split_bufferINS_7complexIdEERNS_9allocatorIS2_EEE5clearB8ue170006Ev, symObjAddr: 0x3D88, symBinAddr: 0x1000065C0, symSize: 0x28 }
  - { offsetInCU: 0xE5A9, offset: 0xE5A9, size: 0x8, addend: 0x0, symName: __ZNKSt3__114__split_bufferINS_7complexIdEERNS_9allocatorIS2_EEE8capacityB8ue170006Ev, symObjAddr: 0x3DB0, symBinAddr: 0x1000065E8, symSize: 0x40 }
  - { offsetInCU: 0xE5CE, offset: 0xE5CE, size: 0x8, addend: 0x0, symName: __ZNSt3__114__split_bufferINS_7complexIdEERNS_9allocatorIS2_EEE17__destruct_at_endB8ue170006EPS2_, symObjAddr: 0x3DF0, symBinAddr: 0x100006628, symSize: 0x2C }
  - { offsetInCU: 0xE600, offset: 0xE600, size: 0x8, addend: 0x0, symName: __ZNSt3__114__split_bufferINS_7complexIdEERNS_9allocatorIS2_EEE17__destruct_at_endB8ue170006EPS2_NS_17integral_constantIbLb0EEE, symObjAddr: 0x3E1C, symBinAddr: 0x100006654, symSize: 0x80 }
  - { offsetInCU: 0xE63F, offset: 0xE63F, size: 0x8, addend: 0x0, symName: __ZNKSt3__114__split_bufferINS_7complexIdEERNS_9allocatorIS2_EEE9__end_capB8ue170006Ev, symObjAddr: 0x3E9C, symBinAddr: 0x1000066D4, symSize: 0x28 }
  - { offsetInCU: 0xE664, offset: 0xE664, size: 0x8, addend: 0x0, symName: __ZNKSt3__117__compressed_pairIPNS_7complexIdEERNS_9allocatorIS2_EEE5firstB8ue170006Ev, symObjAddr: 0x3EC4, symBinAddr: 0x1000066FC, symSize: 0x24 }
  - { offsetInCU: 0xE689, offset: 0xE689, size: 0x8, addend: 0x0, symName: __ZNKSt3__16vectorINS_7complexIdEENS_9allocatorIS2_EEE17__annotate_shrinkB8ue170006Em, symObjAddr: 0x3EE8, symBinAddr: 0x100006720, symSize: 0xB4 }
  - { offsetInCU: 0xE6BD, offset: 0xE6BD, size: 0x8, addend: 0x0, symName: __ZNSt3__16vectorIiNS_9allocatorIiEEEC2Em, symObjAddr: 0x3F9C, symBinAddr: 0x1000067D4, symSize: 0xD4 }
  - { offsetInCU: 0xE70D, offset: 0xE70D, size: 0x8, addend: 0x0, symName: __ZNSt3__117__compressed_pairIPiNS_9allocatorIiEEEC1B8ue170006IDnNS_18__default_init_tagEEEOT_OT0_, symObjAddr: 0x4070, symBinAddr: 0x1000068A8, symSize: 0x3C }
  - { offsetInCU: 0xE764, offset: 0xE764, size: 0x8, addend: 0x0, symName: __ZNSt3__16vectorIiNS_9allocatorIiEEE16__destroy_vectorC1B8ue170006ERS3_, symObjAddr: 0x40EC, symBinAddr: 0x100006924, symSize: 0x34 }
  - { offsetInCU: 0xE79C, offset: 0xE79C, size: 0x8, addend: 0x0, symName: __ZNSt3__16vectorIiNS_9allocatorIiEEE11__vallocateB8ue170006Em, symObjAddr: 0x4120, symBinAddr: 0x100006958, symSize: 0xAC }
  - { offsetInCU: 0xE7DE, offset: 0xE7DE, size: 0x8, addend: 0x0, symName: __ZNSt3__16vectorIiNS_9allocatorIiEEE18__construct_at_endEm, symObjAddr: 0x41CC, symBinAddr: 0x100006A04, symSize: 0xC8 }
  - { offsetInCU: 0xE84F, offset: 0xE84F, size: 0x8, addend: 0x0, symName: __ZNSt3__128__exception_guard_exceptionsINS_6vectorIiNS_9allocatorIiEEE16__destroy_vectorEE10__completeB8ue170006Ev, symObjAddr: 0x4294, symBinAddr: 0x100006ACC, symSize: 0x1C }
  - { offsetInCU: 0xE874, offset: 0xE874, size: 0x8, addend: 0x0, symName: __ZNSt3__128__exception_guard_exceptionsINS_6vectorIiNS_9allocatorIiEEE16__destroy_vectorEED1B8ue170006Ev, symObjAddr: 0x42B0, symBinAddr: 0x100006AE8, symSize: 0x2C }
  - { offsetInCU: 0xE89D, offset: 0xE89D, size: 0x8, addend: 0x0, symName: __ZNSt3__117__compressed_pairIPiNS_9allocatorIiEEEC2B8ue170006IDnNS_18__default_init_tagEEEOT_OT0_, symObjAddr: 0x42DC, symBinAddr: 0x100006B14, symSize: 0x40 }
  - { offsetInCU: 0xE8F4, offset: 0xE8F4, size: 0x8, addend: 0x0, symName: __ZNSt3__122__compressed_pair_elemIPiLi0ELb0EEC2B8ue170006IDnvEEOT_, symObjAddr: 0x431C, symBinAddr: 0x100006B54, symSize: 0x1C }
  - { offsetInCU: 0xE935, offset: 0xE935, size: 0x8, addend: 0x0, symName: __ZNSt3__122__compressed_pair_elemINS_9allocatorIiEELi1ELb1EEC2B8ue170006ENS_18__default_init_tagE, symObjAddr: 0x4338, symBinAddr: 0x100006B70, symSize: 0x2C }
  - { offsetInCU: 0xE968, offset: 0xE968, size: 0x8, addend: 0x0, symName: __ZNSt3__19allocatorIiEC2B8ue170006Ev, symObjAddr: 0x4364, symBinAddr: 0x100006B9C, symSize: 0x2C }
  - { offsetInCU: 0xE991, offset: 0xE991, size: 0x8, addend: 0x0, symName: __ZNSt3__116__non_trivial_ifILb1ENS_9allocatorIiEEEC2B8ue170006Ev, symObjAddr: 0x4390, symBinAddr: 0x100006BC8, symSize: 0x14 }
  - { offsetInCU: 0xE9BA, offset: 0xE9BA, size: 0x8, addend: 0x0, symName: __ZNSt3__128__exception_guard_exceptionsINS_6vectorIiNS_9allocatorIiEEE16__destroy_vectorEEC1B8ue170006ES5_, symObjAddr: 0x43A4, symBinAddr: 0x100006BDC, symSize: 0x34 }
  - { offsetInCU: 0xE9F1, offset: 0xE9F1, size: 0x8, addend: 0x0, symName: __ZNSt3__128__exception_guard_exceptionsINS_6vectorIiNS_9allocatorIiEEE16__destroy_vectorEEC2B8ue170006ES5_, symObjAddr: 0x43D8, symBinAddr: 0x100006C10, symSize: 0x24 }
  - { offsetInCU: 0xEA28, offset: 0xEA28, size: 0x8, addend: 0x0, symName: __ZNSt3__16vectorIiNS_9allocatorIiEEE16__destroy_vectorC2B8ue170006ERS3_, symObjAddr: 0x43FC, symBinAddr: 0x100006C34, symSize: 0x20 }
  - { offsetInCU: 0xEA5F, offset: 0xEA5F, size: 0x8, addend: 0x0, symName: __ZNKSt3__16vectorIiNS_9allocatorIiEEE8max_sizeEv, symObjAddr: 0x441C, symBinAddr: 0x100006C54, symSize: 0x60 }
  - { offsetInCU: 0xEA86, offset: 0xEA86, size: 0x8, addend: 0x0, symName: __ZNKSt3__16vectorIiNS_9allocatorIiEEE20__throw_length_errorB8ue170006Ev, symObjAddr: 0x447C, symBinAddr: 0x100006CB4, symSize: 0x1C }
  - { offsetInCU: 0xEAAB, offset: 0xEAAB, size: 0x8, addend: 0x0, symName: __ZNSt3__16vectorIiNS_9allocatorIiEEE7__allocB8ue170006Ev, symObjAddr: 0x44D8, symBinAddr: 0x100006D10, symSize: 0x28 }
  - { offsetInCU: 0xEAD0, offset: 0xEAD0, size: 0x8, addend: 0x0, symName: __ZNSt3__16vectorIiNS_9allocatorIiEEE9__end_capB8ue170006Ev, symObjAddr: 0x4500, symBinAddr: 0x100006D38, symSize: 0x28 }
  - { offsetInCU: 0xEAF5, offset: 0xEAF5, size: 0x8, addend: 0x0, symName: __ZNKSt3__16vectorIiNS_9allocatorIiEEE14__annotate_newB8ue170006Em, symObjAddr: 0x4528, symBinAddr: 0x100006D60, symSize: 0xAC }
  - { offsetInCU: 0xEB33, offset: 0xEB33, size: 0x8, addend: 0x0, symName: __ZNSt3__116allocator_traitsINS_9allocatorIiEEE8max_sizeB8ue170006IS2_vEEmRKS2_, symObjAddr: 0x45D4, symBinAddr: 0x100006E0C, symSize: 0x24 }
  - { offsetInCU: 0xEB61, offset: 0xEB61, size: 0x8, addend: 0x0, symName: __ZNKSt3__16vectorIiNS_9allocatorIiEEE7__allocB8ue170006Ev, symObjAddr: 0x45F8, symBinAddr: 0x100006E30, symSize: 0x28 }
  - { offsetInCU: 0xEB86, offset: 0xEB86, size: 0x8, addend: 0x0, symName: __ZNKSt3__19allocatorIiE8max_sizeB8ue170006Ev, symObjAddr: 0x4620, symBinAddr: 0x100006E58, symSize: 0x14 }
  - { offsetInCU: 0xEBAB, offset: 0xEBAB, size: 0x8, addend: 0x0, symName: __ZNKSt3__117__compressed_pairIPiNS_9allocatorIiEEE6secondB8ue170006Ev, symObjAddr: 0x4634, symBinAddr: 0x100006E6C, symSize: 0x24 }
  - { offsetInCU: 0xEBD0, offset: 0xEBD0, size: 0x8, addend: 0x0, symName: __ZNKSt3__122__compressed_pair_elemINS_9allocatorIiEELi1ELb1EE5__getB8ue170006Ev, symObjAddr: 0x4658, symBinAddr: 0x100006E90, symSize: 0x14 }
  - { offsetInCU: 0xEBF5, offset: 0xEBF5, size: 0x8, addend: 0x0, symName: __ZNSt3__19allocatorIiE8allocateB8ue170006Em, symObjAddr: 0x466C, symBinAddr: 0x100006EA4, symSize: 0x58 }
  - { offsetInCU: 0xEC28, offset: 0xEC28, size: 0x8, addend: 0x0, symName: __ZNSt3__117__compressed_pairIPiNS_9allocatorIiEEE6secondB8ue170006Ev, symObjAddr: 0x46C4, symBinAddr: 0x100006EFC, symSize: 0x24 }
  - { offsetInCU: 0xEC4D, offset: 0xEC4D, size: 0x8, addend: 0x0, symName: __ZNSt3__122__compressed_pair_elemINS_9allocatorIiEELi1ELb1EE5__getB8ue170006Ev, symObjAddr: 0x46E8, symBinAddr: 0x100006F20, symSize: 0x14 }
  - { offsetInCU: 0xEC72, offset: 0xEC72, size: 0x8, addend: 0x0, symName: __ZNSt3__117__compressed_pairIPiNS_9allocatorIiEEE5firstB8ue170006Ev, symObjAddr: 0x46FC, symBinAddr: 0x100006F34, symSize: 0x24 }
  - { offsetInCU: 0xEC97, offset: 0xEC97, size: 0x8, addend: 0x0, symName: __ZNSt3__122__compressed_pair_elemIPiLi0ELb0EE5__getB8ue170006Ev, symObjAddr: 0x4720, symBinAddr: 0x100006F58, symSize: 0x14 }
  - { offsetInCU: 0xECBC, offset: 0xECBC, size: 0x8, addend: 0x0, symName: __ZNKSt3__16vectorIiNS_9allocatorIiEEE31__annotate_contiguous_containerB8ue170006EPKvS5_S5_S5_, symObjAddr: 0x4734, symBinAddr: 0x100006F6C, symSize: 0x20 }
  - { offsetInCU: 0xED0D, offset: 0xED0D, size: 0x8, addend: 0x0, symName: __ZNKSt3__16vectorIiNS_9allocatorIiEEE4dataB8ue170006Ev, symObjAddr: 0x4754, symBinAddr: 0x100006F8C, symSize: 0x28 }
  - { offsetInCU: 0xED32, offset: 0xED32, size: 0x8, addend: 0x0, symName: __ZNKSt3__16vectorIiNS_9allocatorIiEEE8capacityB8ue170006Ev, symObjAddr: 0x477C, symBinAddr: 0x100006FB4, symSize: 0x40 }
  - { offsetInCU: 0xED57, offset: 0xED57, size: 0x8, addend: 0x0, symName: __ZNKSt3__16vectorIiNS_9allocatorIiEEE9__end_capB8ue170006Ev, symObjAddr: 0x47D0, symBinAddr: 0x100007008, symSize: 0x28 }
  - { offsetInCU: 0xED7C, offset: 0xED7C, size: 0x8, addend: 0x0, symName: __ZNKSt3__117__compressed_pairIPiNS_9allocatorIiEEE5firstB8ue170006Ev, symObjAddr: 0x47F8, symBinAddr: 0x100007030, symSize: 0x24 }
  - { offsetInCU: 0xEDA1, offset: 0xEDA1, size: 0x8, addend: 0x0, symName: __ZNKSt3__122__compressed_pair_elemIPiLi0ELb0EE5__getB8ue170006Ev, symObjAddr: 0x481C, symBinAddr: 0x100007054, symSize: 0x14 }
  - { offsetInCU: 0xEDDF, offset: 0xEDDF, size: 0x8, addend: 0x0, symName: __ZNSt3__16vectorIiNS_9allocatorIiEEE21_ConstructTransactionC1B8ue170006ERS3_m, symObjAddr: 0x4830, symBinAddr: 0x100007068, symSize: 0x3C }
  - { offsetInCU: 0xEE26, offset: 0xEE26, size: 0x8, addend: 0x0, symName: __ZNSt3__116allocator_traitsINS_9allocatorIiEEE9constructB8ue170006IiJEvEEvRS2_PT_DpOT0_, symObjAddr: 0x486C, symBinAddr: 0x1000070A4, symSize: 0x2C }
  - { offsetInCU: 0xEE68, offset: 0xEE68, size: 0x8, addend: 0x0, symName: __ZNSt3__16vectorIiNS_9allocatorIiEEE21_ConstructTransactionD1B8ue170006Ev, symObjAddr: 0x4898, symBinAddr: 0x1000070D0, symSize: 0x2C }
  - { offsetInCU: 0xEE91, offset: 0xEE91, size: 0x8, addend: 0x0, symName: __ZNSt3__16vectorIiNS_9allocatorIiEEE21_ConstructTransactionC2B8ue170006ERS3_m, symObjAddr: 0x48C4, symBinAddr: 0x1000070FC, symSize: 0x44 }
  - { offsetInCU: 0xEED8, offset: 0xEED8, size: 0x8, addend: 0x0, symName: __ZNSt3__19allocatorIiE9constructB8ue170006IiJEEEvPT_DpOT0_, symObjAddr: 0x4908, symBinAddr: 0x100007140, symSize: 0x1C }
  - { offsetInCU: 0xEF19, offset: 0xEF19, size: 0x8, addend: 0x0, symName: __ZNSt3__16vectorIiNS_9allocatorIiEEE21_ConstructTransactionD2B8ue170006Ev, symObjAddr: 0x4924, symBinAddr: 0x10000715C, symSize: 0x20 }
  - { offsetInCU: 0xEF42, offset: 0xEF42, size: 0x8, addend: 0x0, symName: __ZNSt3__128__exception_guard_exceptionsINS_6vectorIiNS_9allocatorIiEEE16__destroy_vectorEED2B8ue170006Ev, symObjAddr: 0x4944, symBinAddr: 0x10000717C, symSize: 0x50 }
  - { offsetInCU: 0xEF6B, offset: 0xEF6B, size: 0x8, addend: 0x0, symName: __ZNSt3__16vectorIiNS_9allocatorIiEEE16__destroy_vectorclB8ue170006Ev, symObjAddr: 0x4994, symBinAddr: 0x1000071CC, symSize: 0x90 }
  - { offsetInCU: 0xEF90, offset: 0xEF90, size: 0x8, addend: 0x0, symName: __ZNSt3__16vectorIiNS_9allocatorIiEEE7__clearB8ue170006Ev, symObjAddr: 0x4A24, symBinAddr: 0x10000725C, symSize: 0x28 }
  - { offsetInCU: 0xEFB5, offset: 0xEFB5, size: 0x8, addend: 0x0, symName: __ZNKSt3__16vectorIiNS_9allocatorIiEEE17__annotate_deleteB8ue170006Ev, symObjAddr: 0x4A4C, symBinAddr: 0x100007284, symSize: 0xB8 }
  - { offsetInCU: 0xEFDA, offset: 0xEFDA, size: 0x8, addend: 0x0, symName: __ZNSt3__116allocator_traitsINS_9allocatorIiEEE10deallocateB8ue170006ERS2_Pim, symObjAddr: 0x4B04, symBinAddr: 0x10000733C, symSize: 0x34 }
  - { offsetInCU: 0xF01C, offset: 0xF01C, size: 0x8, addend: 0x0, symName: __ZNSt3__16vectorIiNS_9allocatorIiEEE22__base_destruct_at_endB8ue170006EPi, symObjAddr: 0x4B38, symBinAddr: 0x100007370, symSize: 0x8C }
  - { offsetInCU: 0xF05F, offset: 0xF05F, size: 0x8, addend: 0x0, symName: __ZNSt3__116allocator_traitsINS_9allocatorIiEEE7destroyB8ue170006IivEEvRS2_PT_, symObjAddr: 0x4BC4, symBinAddr: 0x1000073FC, symSize: 0x2C }
  - { offsetInCU: 0xF09C, offset: 0xF09C, size: 0x8, addend: 0x0, symName: __ZNSt3__19allocatorIiE7destroyB8ue170006EPi, symObjAddr: 0x4BF0, symBinAddr: 0x100007428, symSize: 0x14 }
  - { offsetInCU: 0xF0CF, offset: 0xF0CF, size: 0x8, addend: 0x0, symName: __ZNSt3__19allocatorIiE10deallocateB8ue170006EPim, symObjAddr: 0x4C04, symBinAddr: 0x10000743C, symSize: 0x40 }
  - { offsetInCU: 0xF110, offset: 0xF110, size: 0x8, addend: 0x0, symName: __ZNSt3__16vectorIiNS_9allocatorIiEEED2B8ue170006Ev, symObjAddr: 0x4C44, symBinAddr: 0x10000747C, symSize: 0x40 }
  - { offsetInCU: 0xF139, offset: 0xF139, size: 0x8, addend: 0x0, symName: __ZNSt3__16vectorIiNS_9allocatorIiEEEC2EmRKi, symObjAddr: 0x4C84, symBinAddr: 0x1000074BC, symSize: 0xDC }
  - { offsetInCU: 0xF197, offset: 0xF197, size: 0x8, addend: 0x0, symName: __ZNSt3__16vectorIiNS_9allocatorIiEEE18__construct_at_endEmRKi, symObjAddr: 0x4D60, symBinAddr: 0x100007598, symSize: 0xD0 }
  - { offsetInCU: 0xF217, offset: 0xF217, size: 0x8, addend: 0x0, symName: __ZNSt3__116allocator_traitsINS_9allocatorIiEEE9constructB8ue170006IiJRKiEvEEvRS2_PT_DpOT0_, symObjAddr: 0x4E30, symBinAddr: 0x100007668, symSize: 0x34 }
  - { offsetInCU: 0xF26E, offset: 0xF26E, size: 0x8, addend: 0x0, symName: __ZNSt3__19allocatorIiE9constructB8ue170006IiJRKiEEEvPT_DpOT0_, symObjAddr: 0x4E64, symBinAddr: 0x10000769C, symSize: 0x28 }
  - { offsetInCU: 0xF2C2, offset: 0xF2C2, size: 0x8, addend: 0x0, symName: __ZNKSt3__19basic_iosIcNS_11char_traitsIcEEE5widenB8ue170006Ec, symObjAddr: 0x4E8C, symBinAddr: 0x1000076C4, symSize: 0x84 }
  - { offsetInCU: 0xF32F, offset: 0xF32F, size: 0x8, addend: 0x0, symName: __ZNKSt3__15ctypeIcE5widenB8ue170006Ec, symObjAddr: 0x4F3C, symBinAddr: 0x100007774, symSize: 0x38 }
...
